target datalayout = "e-m:e-p270:32:32-p271:32:32-p272:64:64-i64:64-i128:128-f80:128-n8:16:32:64-S128"
target triple = "x86_64-pc-linux-gnu"

@recoveryTargetTimeLineGoal = dso_local global i32 1, align 4
@recoveryTargetTLIRequested = dso_local global i32 0, align 4

; Function Attrs: nounwind uwtable
define dso_local void @assign_recovery_target_timeline(ptr noundef %0, ptr noundef %1) #0 {
  %3 = alloca ptr, align 8
  %4 = alloca ptr, align 8
  store ptr %0, ptr %3, align 8
  store ptr %1, ptr %4, align 8
  %5 = load ptr, ptr %4, align 8
  %6 = load i32, ptr %5, align 4
  store i32 %6, ptr @recoveryTargetTimeLineGoal, align 4
  %7 = load i32, ptr @recoveryTargetTimeLineGoal, align 4
  %8 = icmp eq i32 %7, 2
  br i1 %8, label %9, label %13

9:                                                ; preds = %2
  %10 = load ptr, ptr %3, align 8
  %11 = call i64 @strtoul(ptr noundef %10, ptr noundef null, i32 noundef 0) #14
  %12 = trunc i64 %11 to i32
  store i32 %12, ptr @recoveryTargetTLIRequested, align 4
  br label %14

13:                                               ; preds = %2
  store i32 0, ptr @recoveryTargetTLIRequested, align 4
  br label %14

14:                                               ; preds = %13, %9
  ret void
}