; Function Attrs: mustprogress nofree nounwind willreturn uwtable
define dso_local void @assign_recovery_target_timeline(ptr noundef readonly captures(none) %0, ptr noundef readonly captures(none) %1) local_unnamed_addr #17 {
  %3 = load i32, ptr %1, align 4
  store i32 %3, ptr @recoveryTargetTimeLineGoal, align 4
  %4 = icmp eq i32 %3, 2
  br i1 %4, label %5, label %8

5:                                                ; preds = %2
  %6 = tail call i64 @strtoul(ptr noundef captures(none) %0, ptr noundef null, i32 noundef 0) #23
  %7 = trunc i64 %6 to i32
  br label %8

8:                                                ; preds = %2, %5
  %storemerge = phi i32 [ %7, %5 ], [ 0, %2 ]
  store i32 %storemerge, ptr @recoveryTargetTLIRequested, align 4
  ret void
}